target datalayout = "e-m:e-p270:32:32-p271:32:32-p272:64:64-i64:64-i128:128-f80:128-n8:16:32:64-S128"
target triple = "x86_64-pc-linux-gnu"

%class.XVirtualMemory = type { i64, i64 }
%class.XPage = type { i8, i8, i32, %class.XVirtualMemory, i64, %class.XLiveMap, i64, %class.XPhysicalMemory, %class.XListNode }
%class.XLiveMap = type { i32, i32, i64, i64, i64, %class.XBitMap, i64 }
%class.XBitMap = type { %class.CHeapBitMap.base, [7 x i8] }
%class.CHeapBitMap.base = type <{ %class.GrowableBitMap, i8 }>
%class.GrowableBitMap = type { %class.BitMap }
%class.BitMap = type { ptr, i64 }
%class.XPhysicalMemory = type { %class.GrowableArrayCHeap }
%class.GrowableArrayCHeap = type { %class.GrowableArrayWithAllocator }
%class.GrowableArrayWithAllocator = type { %class.GrowableArrayView }
%class.GrowableArrayView = type { %class.GrowableArrayBase, ptr }
%class.GrowableArrayBase = type { i32, i32 }
%class.XListNode = type { ptr, ptr }

@XObjectAlignmentSmallShift = external constant ptr, align 8
@XObjectAlignmentMediumShift = external global i32, align 4

; Function Attrs: mustprogress nounwind uwtable
define linkonce_odr hidden noundef i64 @_ZNK14XVirtualMemory4sizeEv(ptr noundef nonnull align 8 dereferenceable(16) %0) #1 comdat align 2 {
  %2 = alloca ptr, align 8
  store ptr %0, ptr %2, align 8
  %3 = load ptr, ptr %2, align 8
  %4 = getelementptr inbounds %class.XVirtualMemory, ptr %3, i32 0, i32 1
  %5 = load i64, ptr %4, align 8
  %6 = getelementptr inbounds %class.XVirtualMemory, ptr %3, i32 0, i32 0
  %7 = load i64, ptr %6, align 8
  %8 = sub i64 %5, %7
  ret i64 %8
}

; Function Attrs: mustprogress nounwind uwtable
define linkonce_odr hidden noundef i64 @_ZNK5XPage22object_alignment_shiftEv(ptr noundef nonnull align 8 dereferenceable(136) %0) #1 comdat align 2 {
  %2 = alloca i64, align 8
  %3 = alloca ptr, align 8
  store ptr %0, ptr %3, align 8
  %4 = load ptr, ptr %3, align 8
  %5 = call noundef zeroext i8 @_ZNK5XPage4typeEv(ptr noundef nonnull align 8 dereferenceable(136) %4)
  %6 = zext i8 %5 to i32
  switch i32 %6, label %14 [
    i32 0, label %7
    i32 1, label %11
  ]

7:                                                ; preds = %1
  %8 = load ptr, ptr @XObjectAlignmentSmallShift, align 8
  %9 = load i32, ptr %8, align 4
  %10 = sext i32 %9 to i64
  store i64 %10, ptr %2, align 8
  br label %15

11:                                               ; preds = %1
  %12 = load i32, ptr @XObjectAlignmentMediumShift, align 4
  %13 = sext i32 %12 to i64
  store i64 %13, ptr %2, align 8
  br label %15

14:                                               ; preds = %1
  store i64 21, ptr %2, align 8
  br label %15

15:                                               ; preds = %14, %11, %7
  %16 = load i64, ptr %2, align 8
  ret i64 %16
}

; Function Attrs: mustprogress nounwind uwtable
define linkonce_odr hidden noundef i64 @_ZNK5XPage4sizeEv(ptr noundef nonnull align 8 dereferenceable(136) %0) #1 comdat align 2 {
  %2 = alloca ptr, align 8
  store ptr %0, ptr %2, align 8
  %3 = load ptr, ptr %2, align 8
  %4 = getelementptr inbounds %class.XPage, ptr %3, i32 0, i32 3
  %5 = call noundef i64 @_ZNK14XVirtualMemory4sizeEv(ptr noundef nonnull align 8 dereferenceable(16) %4)
  ret i64 %5
}

; Function Attrs: mustprogress nounwind uwtable
define linkonce_odr hidden noundef zeroext i8 @_ZNK5XPage4typeEv(ptr noundef nonnull align 8 dereferenceable(136) %0) #1 comdat align 2 {
  %2 = alloca ptr, align 8
  store ptr %0, ptr %2, align 8
  %3 = load ptr, ptr %2, align 8
  %4 = getelementptr inbounds %class.XPage, ptr %3, i32 0, i32 0
  %5 = load i8, ptr %4, align 8
  ret i8 %5
}

; Function Attrs: mustprogress nounwind uwtable
define linkonce_odr hidden noundef i32 @_ZNK5XPage16object_max_countEv(ptr noundef nonnull align 8 dereferenceable(136) %0) #1 comdat align 2 {
  %2 = alloca i32, align 4
  %3 = alloca ptr, align 8
  store ptr %0, ptr %3, align 8
  %4 = load ptr, ptr %3, align 8
  %5 = call noundef zeroext i8 @_ZNK5XPage4typeEv(ptr noundef nonnull align 8 dereferenceable(136) %4)
  %6 = zext i8 %5 to i32
  switch i32 %6, label %8 [
    i32 2, label %7
  ]

7:                                                ; preds = %1
  store i32 1, ptr %2, align 4
  br label %13

8:                                                ; preds = %1
  %9 = call noundef i64 @_ZNK5XPage4sizeEv(ptr noundef nonnull align 8 dereferenceable(136) %4)
  %10 = call noundef i64 @_ZNK5XPage22object_alignment_shiftEv(ptr noundef nonnull align 8 dereferenceable(136) %4)
  %11 = lshr i64 %9, %10
  %12 = trunc i64 %11 to i32
  store i32 %12, ptr %2, align 4
  br label %13

13:                                               ; preds = %8, %7
  %14 = load i32, ptr %2, align 4
  ret i32 %14
}

; Function Attrs: mustprogress nounwind uwtable
define hidden noundef ptr @_ZN5XPage6retypeEh(ptr noundef nonnull align 8 dereferenceable(136) %0, i8 noundef zeroext %1) #1 align 2 {
  %3 = alloca ptr, align 8
  %4 = alloca i8, align 1
  store ptr %0, ptr %3, align 8
  store i8 %1, ptr %4, align 1
  %5 = load ptr, ptr %3, align 8
  %6 = load i8, ptr %4, align 1
  %7 = getelementptr inbounds %class.XPage, ptr %5, i32 0, i32 0
  store i8 %6, ptr %7, align 8
  %8 = getelementptr inbounds %class.XPage, ptr %5, i32 0, i32 5
  %9 = call noundef i32 @_ZNK5XPage16object_max_countEv(ptr noundef nonnull align 8 dereferenceable(136) %5)
  call void @_ZN8XLiveMap6resizeEj(ptr noundef nonnull align 8 dereferenceable(64) %8, i32 noundef %9)
  ret ptr %5
}