; Function Attrs: mustprogress nounwind uwtable
define hidden noundef nonnull ptr @_ZN5XPage6retypeEh(ptr noundef nonnull returned align 8 dereferenceable(136) %0, i8 noundef zeroext %1) local_unnamed_addr #0 align 2 {
  store i8 %1, ptr %0, align 8
  %cond.i = icmp eq i8 %1, 2
  br i1 %cond.i, label %_ZNK5XPage16object_max_countEv.exit, label %3

3:                                                ; preds = %2
  %4 = getelementptr inbounds i8, ptr %0, i64 8
  %5 = getelementptr inbounds i8, ptr %0, i64 16
  %6 = load i64, ptr %5, align 8
  %7 = load i64, ptr %4, align 8
  %8 = sub i64 %6, %7
  switch i8 %1, label %_ZNK5XPage22object_alignment_shiftEv.exit.i [
    i8 0, label %9
    i8 1, label %_ZNK5XPage22object_alignment_shiftEv.exit.sink.split.i
  ]

9:                                                ; preds = %3
  %10 = load ptr, ptr @XObjectAlignmentSmallShift, align 8
  br label %_ZNK5XPage22object_alignment_shiftEv.exit.sink.split.i

_ZNK5XPage22object_alignment_shiftEv.exit.sink.split.i: ; preds = %9, %3
  %.sink1.i = phi ptr [ %10, %9 ], [ @XObjectAlignmentMediumShift, %3 ]
  %11 = load i32, ptr %.sink1.i, align 4
  %12 = sext i32 %11 to i64
  br label %_ZNK5XPage22object_alignment_shiftEv.exit.i

_ZNK5XPage22object_alignment_shiftEv.exit.i:      ; preds = %_ZNK5XPage22object_alignment_shiftEv.exit.sink.split.i, %3
  %.0.i.i = phi i64 [ 21, %3 ], [ %12, %_ZNK5XPage22object_alignment_shiftEv.exit.sink.split.i ]
  %13 = lshr i64 %8, %.0.i.i
  %14 = trunc i64 %13 to i32
  br label %_ZNK5XPage16object_max_countEv.exit

_ZNK5XPage16object_max_countEv.exit:              ; preds = %2, %_ZNK5XPage22object_alignment_shiftEv.exit.i
  %.0.i = phi i32 [ %14, %_ZNK5XPage22object_alignment_shiftEv.exit.i ], [ 1, %2 ]
  %15 = getelementptr inbounds i8, ptr %0, i64 32
  tail call void @_ZN8XLiveMap6resizeEj(ptr noundef nonnull align 8 dereferenceable(64) %15, i32 noundef %.0.i) #8
  ret ptr %0
}